target datalayout = "e-m:e-p270:32:32-p271:32:32-p272:64:64-i64:64-i128:128-f80:128-n8:16:32:64-S128"
target triple = "x86_64-pc-linux-gnu"

%struct.Mio_Cell2_t_ = type { ptr, ptr, i32, float, i64, i64, i32, [6 x i32], ptr }
%struct.Nf_Cfg_t_ = type { i32 }
%struct.Vec_Int_t_ = type { i32, i32, ptr }
%struct.Nf_Man_t_ = type { ptr, ptr, ptr, ptr, ptr, ptr, i32, ptr, %struct.Vec_Ptr_t_, %struct.Vec_Int_t_, %struct.Vec_Int_t_, %struct.Vec_Flt_t_, %struct.Vec_Int_t_, %struct.Vec_Flt_t_, %struct.Vec_Int_t_, %struct.Vec_Int_t_, i32, i32, i32, i32, i32, i64, float, i64, [6 x double], i32 }
%struct.Vec_Ptr_t_ = type { i32, i32, ptr }
%struct.Vec_Flt_t_ = type { i32, i32, ptr }
%struct.Gia_Man_t_ = type { ptr, ptr, i32, i32, i32, i32, ptr, ptr, i32, i32, i32, ptr, ptr, %struct.Vec_Int_t_, %struct.Vec_Int_t_, i32, i32, i32, %struct.Vec_Int_t_, ptr, ptr, ptr, i32, i32, i32, i32, ptr, ptr, ptr, ptr, ptr, i32, i32, ptr, i32, ptr, ptr, ptr, ptr, ptr, ptr, ptr, ptr, ptr, ptr, ptr, ptr, ptr, ptr, ptr, ptr, ptr, ptr, %struct.Vec_Int_t_, %struct.Vec_Int_t_, ptr, ptr, ptr, ptr, ptr, ptr, ptr, ptr, ptr, ptr, ptr, ptr, ptr, ptr, ptr, ptr, ptr, ptr, ptr, ptr, ptr, i32, float, float, ptr, ptr, i32, ptr, ptr, ptr, ptr, ptr, ptr, ptr, ptr, ptr, ptr, ptr, ptr, ptr, ptr, ptr, i64, i64, ptr, ptr, i32, i32, i32, i32, i32, i32, i32, i32, i32, i32, i32, i32, ptr, ptr, ptr, ptr, ptr, ptr, ptr, ptr, i32, i32, i32, ptr, i32, i32, ptr, ptr, ptr, ptr, ptr, ptr, i32, i32, ptr, %struct.Vec_Int_t_, %struct.Vec_Int_t_, %struct.Vec_Int_t_, ptr, ptr, ptr, i32, i32, i32, i32, ptr, ptr, ptr, ptr, ptr }
%struct.Nf_Obj_t_ = type { [2 x [2 x %struct.Nf_Mat_t_]] }
%struct.Nf_Mat_t_ = type { i32, %struct.Nf_Cfg_t_, i32, float }
%struct.Gia_Obj_t_ = type <{ i64, i32 }>

@.str.7 = private unnamed_addr constant [3 x i8] c"  \00", align 1
@.str.25 = private unnamed_addr constant [2 x i8] c"\0A\00", align 1
@.str.61 = private unnamed_addr constant [7 x i8] c"%5d : \00", align 1
@.str.62 = private unnamed_addr constant [13 x i8] c"Dp = %6.2f  \00", align 1
@.str.63 = private unnamed_addr constant [13 x i8] c"Dn = %6.2f  \00", align 1
@.str.64 = private unnamed_addr constant [13 x i8] c"Ap = %6.2f  \00", align 1
@.str.65 = private unnamed_addr constant [13 x i8] c"An = %6.2f  \00", align 1
@.str.66 = private unnamed_addr constant [10 x i8] c"Dp = %8s \00", align 1
@.str.67 = private unnamed_addr constant [10 x i8] c"Dn = %8s \00", align 1
@.str.68 = private unnamed_addr constant [10 x i8] c"Ap = %8s \00", align 1
@.str.69 = private unnamed_addr constant [10 x i8] c"An = %8s \00", align 1

; Function Attrs: inlinehint nounwind uwtable
define internal ptr @Nf_ManObj(ptr noundef %0, i32 noundef %1) #2 {
  %3 = alloca ptr, align 8
  %4 = alloca i32, align 4
  store ptr %0, ptr %3, align 8, !tbaa !61
  store i32 %1, ptr %4, align 4, !tbaa !17
  %5 = load ptr, ptr %3, align 8, !tbaa !61
  %6 = getelementptr inbounds nuw %struct.Nf_Man_t_, ptr %5, i32 0, i32 7
  %7 = load ptr, ptr %6, align 8, !tbaa !104
  %8 = load i32, ptr %4, align 4, !tbaa !17
  %9 = sext i32 %8 to i64
  %10 = getelementptr inbounds %struct.Nf_Obj_t_, ptr %7, i64 %9
  ret ptr %10
}

; Function Attrs: inlinehint nounwind uwtable
define internal ptr @Nf_ManCell(ptr noundef %0, i32 noundef %1) #2 {
  %3 = alloca ptr, align 8
  %4 = alloca i32, align 4
  store ptr %0, ptr %3, align 8, !tbaa !61
  store i32 %1, ptr %4, align 4, !tbaa !17
  %5 = load ptr, ptr %3, align 8, !tbaa !61
  %6 = getelementptr inbounds nuw %struct.Nf_Man_t_, ptr %5, i32 0, i32 5
  %7 = load ptr, ptr %6, align 8, !tbaa !63
  %8 = load i32, ptr %4, align 4, !tbaa !17
  %9 = sext i32 %8 to i64
  %10 = getelementptr inbounds %struct.Mio_Cell2_t_, ptr %7, i64 %9
  ret ptr %10
}

; Function Attrs: inlinehint nounwind uwtable
define internal float @Scl_Int2Flt(i32 noundef %0) #2 {
  %2 = alloca i32, align 4
  store i32 %0, ptr %2, align 4, !tbaa !17
  %3 = load i32, ptr %2, align 4, !tbaa !17
  %4 = sitofp i32 %3 to float
  %5 = fdiv float %4, 1.000000e+03
  ret float %5
}

; Function Attrs: inlinehint nounwind uwtable
define internal ptr @Nf_ObjMatchA(ptr noundef %0, i32 noundef %1, i32 noundef %2) #2 {
  %4 = alloca ptr, align 8
  %5 = alloca i32, align 4
  %6 = alloca i32, align 4
  store ptr %0, ptr %4, align 8, !tbaa !61
  store i32 %1, ptr %5, align 4, !tbaa !17
  store i32 %2, ptr %6, align 4, !tbaa !17
  %7 = load ptr, ptr %4, align 8, !tbaa !61
  %8 = load i32, ptr %5, align 4, !tbaa !17
  %9 = call ptr @Nf_ManObj(ptr noundef %7, i32 noundef %8)
  %10 = getelementptr inbounds nuw %struct.Nf_Obj_t_, ptr %9, i32 0, i32 0
  %11 = load i32, ptr %6, align 4, !tbaa !17
  %12 = sext i32 %11 to i64
  %13 = getelementptr inbounds [2 x [2 x %struct.Nf_Mat_t_]], ptr %10, i64 0, i64 %12
  %14 = getelementptr inbounds [2 x %struct.Nf_Mat_t_], ptr %13, i64 0, i64 1
  ret ptr %14
}

; Function Attrs: inlinehint nounwind uwtable
define internal ptr @Nf_ObjMatchD(ptr noundef %0, i32 noundef %1, i32 noundef %2) #2 {
  %4 = alloca ptr, align 8
  %5 = alloca i32, align 4
  %6 = alloca i32, align 4
  store ptr %0, ptr %4, align 8, !tbaa !61
  store i32 %1, ptr %5, align 4, !tbaa !17
  store i32 %2, ptr %6, align 4, !tbaa !17
  %7 = load ptr, ptr %4, align 8, !tbaa !61
  %8 = load i32, ptr %5, align 4, !tbaa !17
  %9 = call ptr @Nf_ManObj(ptr noundef %7, i32 noundef %8)
  %10 = getelementptr inbounds nuw %struct.Nf_Obj_t_, ptr %9, i32 0, i32 0
  %11 = load i32, ptr %6, align 4, !tbaa !17
  %12 = sext i32 %11 to i64
  %13 = getelementptr inbounds [2 x [2 x %struct.Nf_Mat_t_]], ptr %10, i64 0, i64 %12
  %14 = getelementptr inbounds [2 x %struct.Nf_Mat_t_], ptr %13, i64 0, i64 0
  ret ptr %14
}

; Function Attrs: inlinehint nounwind uwtable
define internal i32 @Gia_ObjIsAnd(ptr noundef %0) #2 {
  %2 = alloca ptr, align 8
  store ptr %0, ptr %2, align 8, !tbaa !137
  %3 = load ptr, ptr %2, align 8, !tbaa !137
  %4 = load i64, ptr %3, align 4
  %5 = lshr i64 %4, 31
  %6 = and i64 %5, 1
  %7 = trunc i64 %6 to i32
  %8 = icmp ne i32 %7, 0
  br i1 %8, label %15, label %9

9:                                                ; preds = %1
  %10 = load ptr, ptr %2, align 8, !tbaa !137
  %11 = load i64, ptr %10, align 4
  %12 = and i64 %11, 536870911
  %13 = trunc i64 %12 to i32
  %14 = icmp ne i32 %13, 536870911
  br label %15

15:                                               ; preds = %9, %1
  %16 = phi i1 [ false, %1 ], [ %14, %9 ]
  %17 = zext i1 %16 to i32
  ret i32 %17
}

; Function Attrs: inlinehint nounwind uwtable
define internal ptr @Gia_ManObj(ptr noundef %0, i32 noundef %1) #2 {
  %3 = alloca ptr, align 8
  %4 = alloca i32, align 4
  store ptr %0, ptr %3, align 8, !tbaa !84
  store i32 %1, ptr %4, align 4, !tbaa !17
  %5 = load ptr, ptr %3, align 8, !tbaa !84
  %6 = getelementptr inbounds nuw %struct.Gia_Man_t_, ptr %5, i32 0, i32 6
  %7 = load ptr, ptr %6, align 8, !tbaa !157
  %8 = load i32, ptr %4, align 4, !tbaa !17
  %9 = sext i32 %8 to i64
  %10 = getelementptr inbounds %struct.Gia_Obj_t_, ptr %7, i64 %9
  ret ptr %10
}

; Function Attrs: nounwind uwtable
define void @Nf_ManPrintMatches(ptr noundef %0) #0 {
  %2 = alloca ptr, align 8
  %3 = alloca ptr, align 8
  %4 = alloca i32, align 4
  %5 = alloca ptr, align 8
  %6 = alloca ptr, align 8
  %7 = alloca ptr, align 8
  %8 = alloca ptr, align 8
  store ptr %0, ptr %2, align 8, !tbaa !61
  call void @llvm.lifetime.start.p0(i64 8, ptr %3) #13
  call void @llvm.lifetime.start.p0(i64 4, ptr %4) #13
  store i32 0, ptr %4, align 4, !tbaa !17
  br label %9

9:                                                ; preds = %106, %1
  %10 = load i32, ptr %4, align 4, !tbaa !17
  %11 = load ptr, ptr %2, align 8, !tbaa !61
  %12 = getelementptr inbounds nuw %struct.Nf_Man_t_, ptr %11, i32 0, i32 0
  %13 = load ptr, ptr %12, align 8, !tbaa !100
  %14 = getelementptr inbounds nuw %struct.Gia_Man_t_, ptr %13, i32 0, i32 4
  %15 = load i32, ptr %14, align 8, !tbaa !118
  %16 = icmp slt i32 %10, %15
  br i1 %16, label %17, label %24

17:                                               ; preds = %9
  %18 = load ptr, ptr %2, align 8, !tbaa !61
  %19 = getelementptr inbounds nuw %struct.Nf_Man_t_, ptr %18, i32 0, i32 0
  %20 = load ptr, ptr %19, align 8, !tbaa !100
  %21 = load i32, ptr %4, align 4, !tbaa !17
  %22 = call ptr @Gia_ManObj(ptr noundef %20, i32 noundef %21)
  store ptr %22, ptr %3, align 8, !tbaa !137
  %23 = icmp ne ptr %22, null
  br label %24

24:                                               ; preds = %17, %9
  %25 = phi i1 [ false, %9 ], [ %23, %17 ]
  br i1 %25, label %26, label %109

26:                                               ; preds = %24
  %27 = load ptr, ptr %3, align 8, !tbaa !137
  %28 = call i32 @Gia_ObjIsAnd(ptr noundef %27)
  %29 = icmp ne i32 %28, 0
  br i1 %29, label %31, label %30

30:                                               ; preds = %26
  br label %105

31:                                               ; preds = %26
  call void @llvm.lifetime.start.p0(i64 8, ptr %5) #13
  %32 = load ptr, ptr %2, align 8, !tbaa !61
  %33 = load i32, ptr %4, align 4, !tbaa !17
  %34 = call ptr @Nf_ObjMatchD(ptr noundef %32, i32 noundef %33, i32 noundef 0)
  store ptr %34, ptr %5, align 8, !tbaa !193
  call void @llvm.lifetime.start.p0(i64 8, ptr %6) #13
  %35 = load ptr, ptr %2, align 8, !tbaa !61
  %36 = load i32, ptr %4, align 4, !tbaa !17
  %37 = call ptr @Nf_ObjMatchA(ptr noundef %35, i32 noundef %36, i32 noundef 0)
  store ptr %37, ptr %6, align 8, !tbaa !193
  call void @llvm.lifetime.start.p0(i64 8, ptr %7) #13
  %38 = load ptr, ptr %2, align 8, !tbaa !61
  %39 = load i32, ptr %4, align 4, !tbaa !17
  %40 = call ptr @Nf_ObjMatchD(ptr noundef %38, i32 noundef %39, i32 noundef 1)
  store ptr %40, ptr %7, align 8, !tbaa !193
  call void @llvm.lifetime.start.p0(i64 8, ptr %8) #13
  %41 = load ptr, ptr %2, align 8, !tbaa !61
  %42 = load i32, ptr %4, align 4, !tbaa !17
  %43 = call ptr @Nf_ObjMatchA(ptr noundef %41, i32 noundef %42, i32 noundef 1)
  store ptr %43, ptr %8, align 8, !tbaa !193
  %44 = load i32, ptr %4, align 4, !tbaa !17
  %45 = call i32 (ptr, ...) @printf(ptr noundef @.str.61, i32 noundef %44)
  %46 = load ptr, ptr %5, align 8, !tbaa !193
  %47 = getelementptr inbounds nuw %struct.Nf_Mat_t_, ptr %46, i32 0, i32 2
  %48 = load i32, ptr %47, align 4, !tbaa !195
  %49 = call float @Scl_Int2Flt(i32 noundef %48)
  %50 = fpext float %49 to double
  %51 = call i32 (ptr, ...) @printf(ptr noundef @.str.62, double noundef %50)
  %52 = load ptr, ptr %7, align 8, !tbaa !193
  %53 = getelementptr inbounds nuw %struct.Nf_Mat_t_, ptr %52, i32 0, i32 2
  %54 = load i32, ptr %53, align 4, !tbaa !195
  %55 = call float @Scl_Int2Flt(i32 noundef %54)
  %56 = fpext float %55 to double
  %57 = call i32 (ptr, ...) @printf(ptr noundef @.str.63, double noundef %56)
  %58 = call i32 (ptr, ...) @printf(ptr noundef @.str.7)
  %59 = load ptr, ptr %6, align 8, !tbaa !193
  %60 = getelementptr inbounds nuw %struct.Nf_Mat_t_, ptr %59, i32 0, i32 2
  %61 = load i32, ptr %60, align 4, !tbaa !195
  %62 = call float @Scl_Int2Flt(i32 noundef %61)
  %63 = fpext float %62 to double
  %64 = call i32 (ptr, ...) @printf(ptr noundef @.str.64, double noundef %63)
  %65 = load ptr, ptr %8, align 8, !tbaa !193
  %66 = getelementptr inbounds nuw %struct.Nf_Mat_t_, ptr %65, i32 0, i32 2
  %67 = load i32, ptr %66, align 4, !tbaa !195
  %68 = call float @Scl_Int2Flt(i32 noundef %67)
  %69 = fpext float %68 to double
  %70 = call i32 (ptr, ...) @printf(ptr noundef @.str.65, double noundef %69)
  %71 = call i32 (ptr, ...) @printf(ptr noundef @.str.7)
  %72 = load ptr, ptr %2, align 8, !tbaa !61
  %73 = load ptr, ptr %5, align 8, !tbaa !193
  %74 = load i32, ptr %73, align 4
  %75 = and i32 %74, 1048575
  %76 = call ptr @Nf_ManCell(ptr noundef %72, i32 noundef %75)
  %77 = getelementptr inbounds nuw %struct.Mio_Cell2_t_, ptr %76, i32 0, i32 0
  %78 = load ptr, ptr %77, align 8, !tbaa !73
  %79 = call i32 (ptr, ...) @printf(ptr noundef @.str.66, ptr noundef %78)
  %80 = load ptr, ptr %2, align 8, !tbaa !61
  %81 = load ptr, ptr %7, align 8, !tbaa !193
  %82 = load i32, ptr %81, align 4
  %83 = and i32 %82, 1048575
  %84 = call ptr @Nf_ManCell(ptr noundef %80, i32 noundef %83)
  %85 = getelementptr inbounds nuw %struct.Mio_Cell2_t_, ptr %84, i32 0, i32 0
  %86 = load ptr, ptr %85, align 8, !tbaa !73
  %87 = call i32 (ptr, ...) @printf(ptr noundef @.str.67, ptr noundef %86)
  %88 = load ptr, ptr %2, align 8, !tbaa !61
  %89 = load ptr, ptr %6, align 8, !tbaa !193
  %90 = load i32, ptr %89, align 4
  %91 = and i32 %90, 1048575
  %92 = call ptr @Nf_ManCell(ptr noundef %88, i32 noundef %91)
  %93 = getelementptr inbounds nuw %struct.Mio_Cell2_t_, ptr %92, i32 0, i32 0
  %94 = load ptr, ptr %93, align 8, !tbaa !73
  %95 = call i32 (ptr, ...) @printf(ptr noundef @.str.68, ptr noundef %94)
  %96 = load ptr, ptr %2, align 8, !tbaa !61
  %97 = load ptr, ptr %8, align 8, !tbaa !193
  %98 = load i32, ptr %97, align 4
  %99 = and i32 %98, 1048575
  %100 = call ptr @Nf_ManCell(ptr noundef %96, i32 noundef %99)
  %101 = getelementptr inbounds nuw %struct.Mio_Cell2_t_, ptr %100, i32 0, i32 0
  %102 = load ptr, ptr %101, align 8, !tbaa !73
  %103 = call i32 (ptr, ...) @printf(ptr noundef @.str.69, ptr noundef %102)
  %104 = call i32 (ptr, ...) @printf(ptr noundef @.str.25)
  call void @llvm.lifetime.end.p0(i64 8, ptr %8) #13
  call void @llvm.lifetime.end.p0(i64 8, ptr %7) #13
  call void @llvm.lifetime.end.p0(i64 8, ptr %6) #13
  call void @llvm.lifetime.end.p0(i64 8, ptr %5) #13
  br label %105

105:                                              ; preds = %31, %30
  br label %106

106:                                              ; preds = %105
  %107 = load i32, ptr %4, align 4, !tbaa !17
  %108 = add nsw i32 %107, 1
  store i32 %108, ptr %4, align 4, !tbaa !17
  br label %9, !llvm.loop !223

109:                                              ; preds = %24
  call void @llvm.lifetime.end.p0(i64 4, ptr %4) #13
  call void @llvm.lifetime.end.p0(i64 8, ptr %3) #13
  ret void
}