; Function Attrs: nofree nounwind uwtable
define void @Nf_ManPrintMatches(ptr noundef readonly captures(none) %0) local_unnamed_addr #7 {
  %2 = load ptr, ptr %0, align 8, !tbaa !100
  %3 = getelementptr inbounds nuw i8, ptr %2, i64 24
  %4 = load i32, ptr %3, align 8, !tbaa !104
  %5 = icmp sgt i32 %4, 0
  br i1 %5, label %.lr.ph, label %.critedge

.lr.ph:                                           ; preds = %1
  %6 = getelementptr i8, ptr %0, i64 56
  %7 = getelementptr i8, ptr %0, i64 40
  br label %8

8:                                                ; preds = %.lr.ph, %73
  %9 = phi ptr [ %2, %.lr.ph ], [ %74, %73 ]
  %indvars.iv = phi i64 [ 0, %.lr.ph ], [ %indvars.iv.next, %73 ]
  %10 = getelementptr i8, ptr %9, i64 32
  %.val29 = load ptr, ptr %10, align 8, !tbaa !134
  %.not = icmp eq ptr %.val29, null
  br i1 %.not, label %.critedge, label %11

11:                                               ; preds = %8
  %12 = getelementptr inbounds nuw %struct.Gia_Obj_t_, ptr %.val29, i64 %indvars.iv
  %.val30 = load i64, ptr %12, align 4
  %13 = and i64 %.val30, 2147483648
  %.not.i = icmp ne i64 %13, 0
  %14 = and i64 %.val30, 536870911
  %15 = icmp eq i64 %14, 536870911
  %narrow.i.not = or i1 %.not.i, %15
  br i1 %narrow.i.not, label %73, label %16

16:                                               ; preds = %11
  %.val28 = load ptr, ptr %6, align 8, !tbaa !105
  %17 = getelementptr inbounds nuw %struct.Nf_Obj_t_, ptr %.val28, i64 %indvars.iv
  %18 = getelementptr inbounds nuw i8, ptr %17, i64 16
  %19 = getelementptr inbounds nuw i8, ptr %17, i64 32
  %20 = getelementptr inbounds nuw i8, ptr %17, i64 48
  %21 = trunc nuw nsw i64 %indvars.iv to i32
  %22 = tail call i32 (ptr, ...) @printf(ptr noundef nonnull dereferenceable(1) @.str.61, i32 noundef %21)
  %23 = getelementptr inbounds nuw i8, ptr %17, i64 8
  %24 = load i32, ptr %23, align 4, !tbaa !192
  %25 = sitofp i32 %24 to float
  %26 = fdiv float %25, 1.000000e+03
  %27 = fpext float %26 to double
  %28 = tail call i32 (ptr, ...) @printf(ptr noundef nonnull dereferenceable(1) @.str.62, double noundef %27)
  %29 = getelementptr inbounds nuw i8, ptr %17, i64 40
  %30 = load i32, ptr %29, align 4, !tbaa !192
  %31 = sitofp i32 %30 to float
  %32 = fdiv float %31, 1.000000e+03
  %33 = fpext float %32 to double
  %34 = tail call i32 (ptr, ...) @printf(ptr noundef nonnull dereferenceable(1) @.str.63, double noundef %33)
  %35 = tail call i32 (ptr, ...) @printf(ptr noundef nonnull dereferenceable(1) @.str.7)
  %36 = getelementptr inbounds nuw i8, ptr %17, i64 24
  %37 = load i32, ptr %36, align 4, !tbaa !192
  %38 = sitofp i32 %37 to float
  %39 = fdiv float %38, 1.000000e+03
  %40 = fpext float %39 to double
  %41 = tail call i32 (ptr, ...) @printf(ptr noundef nonnull dereferenceable(1) @.str.64, double noundef %40)
  %42 = getelementptr inbounds nuw i8, ptr %17, i64 56
  %43 = load i32, ptr %42, align 4, !tbaa !192
  %44 = sitofp i32 %43 to float
  %45 = fdiv float %44, 1.000000e+03
  %46 = fpext float %45 to double
  %47 = tail call i32 (ptr, ...) @printf(ptr noundef nonnull dereferenceable(1) @.str.65, double noundef %46)
  %48 = tail call i32 (ptr, ...) @printf(ptr noundef nonnull dereferenceable(1) @.str.7)
  %49 = load i32, ptr %17, align 4
  %50 = and i32 %49, 1048575
  %.val34 = load ptr, ptr %7, align 8, !tbaa !62
  %51 = zext nneg i32 %50 to i64
  %52 = getelementptr inbounds nuw %struct.Mio_Cell2_t_, ptr %.val34, i64 %51
  %53 = load ptr, ptr %52, align 8, !tbaa !76
  %54 = tail call i32 (ptr, ...) @printf(ptr noundef nonnull dereferenceable(1) @.str.66, ptr noundef %53)
  %55 = load i32, ptr %19, align 4
  %56 = and i32 %55, 1048575
  %.val33 = load ptr, ptr %7, align 8, !tbaa !62
  %57 = zext nneg i32 %56 to i64
  %58 = getelementptr inbounds nuw %struct.Mio_Cell2_t_, ptr %.val33, i64 %57
  %59 = load ptr, ptr %58, align 8, !tbaa !76
  %60 = tail call i32 (ptr, ...) @printf(ptr noundef nonnull dereferenceable(1) @.str.67, ptr noundef %59)
  %61 = load i32, ptr %18, align 4
  %62 = and i32 %61, 1048575
  %.val32 = load ptr, ptr %7, align 8, !tbaa !62
  %63 = zext nneg i32 %62 to i64
  %64 = getelementptr inbounds nuw %struct.Mio_Cell2_t_, ptr %.val32, i64 %63
  %65 = load ptr, ptr %64, align 8, !tbaa !76
  %66 = tail call i32 (ptr, ...) @printf(ptr noundef nonnull dereferenceable(1) @.str.68, ptr noundef %65)
  %67 = load i32, ptr %20, align 4
  %68 = and i32 %67, 1048575
  %.val31 = load ptr, ptr %7, align 8, !tbaa !62
  %69 = zext nneg i32 %68 to i64
  %70 = getelementptr inbounds nuw %struct.Mio_Cell2_t_, ptr %.val31, i64 %69
  %71 = load ptr, ptr %70, align 8, !tbaa !76
  %72 = tail call i32 (ptr, ...) @printf(ptr noundef nonnull dereferenceable(1) @.str.69, ptr noundef %71)
  %putchar = tail call i32 @putchar(i32 10)
  %.pre = load ptr, ptr %0, align 8, !tbaa !100
  br label %73

73:                                               ; preds = %16, %11
  %74 = phi ptr [ %.pre, %16 ], [ %9, %11 ]
  %indvars.iv.next = add nuw nsw i64 %indvars.iv, 1
  %75 = getelementptr inbounds nuw i8, ptr %74, i64 24
  %76 = load i32, ptr %75, align 8, !tbaa !104
  %77 = sext i32 %76 to i64
  %78 = icmp slt i64 %indvars.iv.next, %77
  br i1 %78, label %8, label %.critedge, !llvm.loop !226

.critedge:                                        ; preds = %8, %73, %1
  ret void
}